target datalayout = "e-m:e-p270:32:32-p271:32:32-p272:64:64-i64:64-i128:128-f80:128-n8:16:32:64-S128"
target triple = "x86_64-pc-linux-gnu"

%struct.expert_field = type { i32, i32 }
%struct._diam_sub_dis_t = type { i32, i32, i32, i32, i32, ptr, ptr, i32, i32, i32 }

@ei_diameter_3gpp_plmn_id_wrong_len = internal global %struct.expert_field zeroinitializer, align 4

; Function Attrs: nounwind uwtable
define internal i32 @dissect_diameter_3gpp_group_plmn_id(ptr noundef %0, ptr noundef %1, ptr noundef %2, ptr noundef %3) #0 {
  %5 = alloca ptr, align 8
  %6 = alloca ptr, align 8
  %7 = alloca ptr, align 8
  %8 = alloca ptr, align 8
  %9 = alloca i32, align 4
  %10 = alloca ptr, align 8
  store ptr %0, ptr %5, align 8
  store ptr %1, ptr %6, align 8
  store ptr %2, ptr %7, align 8
  store ptr %3, ptr %8, align 8
  %11 = load ptr, ptr %5, align 8
  %12 = call i32 @tvb_reported_length(ptr noundef %11)
  store i32 %12, ptr %9, align 4
  %13 = load ptr, ptr %8, align 8
  store ptr %13, ptr %10, align 8
  %14 = load i32, ptr %9, align 4
  %15 = icmp eq i32 %14, 3
  br i1 %15, label %16, label %23

16:                                               ; preds = %4
  %17 = load ptr, ptr %5, align 8
  %18 = load ptr, ptr %6, align 8
  %19 = load ptr, ptr %7, align 8
  %20 = call ptr @dissect_e212_mcc_mnc_wmem_packet_str(ptr noundef %17, ptr noundef %18, ptr noundef %19, i32 noundef 0, i32 noundef 0, i32 noundef 1)
  %21 = load ptr, ptr %10, align 8
  %22 = getelementptr inbounds %struct._diam_sub_dis_t, ptr %21, i32 0, i32 5
  store ptr %20, ptr %22, align 8
  br label %29

23:                                               ; preds = %4
  %24 = load ptr, ptr %7, align 8
  %25 = load ptr, ptr %6, align 8
  %26 = load ptr, ptr %5, align 8
  %27 = load i32, ptr %9, align 4
  %28 = call ptr @proto_tree_add_expert(ptr noundef %24, ptr noundef %25, ptr noundef @ei_diameter_3gpp_plmn_id_wrong_len, ptr noundef %26, i32 noundef 0, i32 noundef %27)
  br label %29

29:                                               ; preds = %23, %16
  %30 = load i32, ptr %9, align 4
  ret i32 %30
}