; Function Attrs: nounwind uwtable
define internal i32 @dissect_diameter_3gpp_group_plmn_id(ptr noundef %0, ptr noundef %1, ptr noundef %2, ptr noundef writeonly captures(none) %3) #0 {
  %5 = tail call i32 @tvb_reported_length(ptr noundef %0) #3
  %6 = icmp eq i32 %5, 3
  br i1 %6, label %7, label %10

7:                                                ; preds = %4
  %8 = tail call ptr @dissect_e212_mcc_mnc_wmem_packet_str(ptr noundef %0, ptr noundef %1, ptr noundef %2, i32 noundef 0, i32 noundef 0, i32 noundef 1) #3
  %9 = getelementptr inbounds nuw i8, ptr %3, i64 24
  store ptr %8, ptr %9, align 8
  br label %12

10:                                               ; preds = %4
  %11 = tail call ptr @proto_tree_add_expert(ptr noundef %2, ptr noundef %1, ptr noundef nonnull @ei_diameter_3gpp_plmn_id_wrong_len, ptr noundef %0, i32 noundef 0, i32 noundef %5) #3
  br label %12

12:                                               ; preds = %10, %7
  ret i32 %5
}